target datalayout = "e-m:e-p270:32:32-p271:32:32-p272:64:64-i64:64-i128:128-f80:128-n8:16:32:64-S128"
target triple = "x86_64-pc-linux-gnu"

%struct.AVFilterContext = type { ptr, ptr, ptr, ptr, ptr, i32, ptr, ptr, i32, ptr, ptr, i32, i32, ptr, ptr, ptr, ptr, i32, ptr, i32, i32 }
%struct.VAAPIVPPContext = type { ptr, ptr, ptr, i32, i32, i32, ptr, ptr, %struct._VARectangle, i32, i32, i32, [10 x i32], i32, i32, ptr, ptr }
%struct._VARectangle = type { i16, i16, i16, i16 }
%struct._VAProcPipelineParameterBuffer = type { i32, ptr, i32, ptr, i32, i32, i32, i32, ptr, i32, ptr, i32, ptr, i32, i32, ptr, i32, ptr, i32, i32, i32, %struct._VAProcColorProperties, %struct._VAProcColorProperties, i32, ptr, [16 x i32] }
%struct._VAProcColorProperties = type { i8, i8, i8, i8, i8, [3 x i8] }
%struct.AVFilterLink = type { ptr, ptr, ptr, ptr, i32, i32, i32, i32, %struct.AVRational, i32, i32, i32, %struct.AVChannelLayout, %struct.AVRational, ptr, i32, %struct.AVFilterFormatsConfig, %struct.AVFilterFormatsConfig }
%struct.AVChannelLayout = type { i32, i32, %union.anon.1, ptr }
%union.anon.1 = type { i64 }
%struct.AVRational = type { i32, i32 }
%struct.AVFilterFormatsConfig = type { ptr, ptr, ptr, ptr, ptr }
%struct.AVFrame = type { [8 x ptr], [8 x i32], ptr, i32, i32, i32, i32, i32, %struct.AVRational, i64, i64, %struct.AVRational, i32, ptr, i32, i32, [8 x ptr], ptr, i32, ptr, i32, i32, i32, i32, i32, i32, i32, i64, ptr, i32, ptr, ptr, i64, i64, i64, i64, ptr, %struct.AVChannelLayout, i64 }

@.str.3 = private unnamed_addr constant [32 x i8] c"Filter input: %s, %ux%u (%ld).\0A\00", align 1
@.str.4 = private unnamed_addr constant [33 x i8] c"Filter output: %s, %ux%u (%ld).\0A\00", align 1

; Function Attrs: nounwind uwtable
define internal i32 @procamp_vaapi_filter_frame(ptr noundef %0, ptr noundef %1) #2 {
  %3 = alloca i32, align 4
  %4 = alloca ptr, align 8
  %5 = alloca ptr, align 8
  %6 = alloca ptr, align 8
  %7 = alloca ptr, align 8
  %8 = alloca ptr, align 8
  %9 = alloca ptr, align 8
  %10 = alloca %struct._VAProcPipelineParameterBuffer, align 8
  %11 = alloca i32, align 4
  %12 = alloca i32, align 4
  store ptr %0, ptr %4, align 8, !tbaa !42
  store ptr %1, ptr %5, align 8, !tbaa !44
  call void @llvm.lifetime.start.p0(i64 8, ptr %6) #6
  %13 = load ptr, ptr %4, align 8, !tbaa !42
  %14 = getelementptr inbounds nuw %struct.AVFilterLink, ptr %13, i32 0, i32 2
  %15 = load ptr, ptr %14, align 8, !tbaa !46
  store ptr %15, ptr %6, align 8, !tbaa !4
  call void @llvm.lifetime.start.p0(i64 8, ptr %7) #6
  %16 = load ptr, ptr %6, align 8, !tbaa !4
  %17 = getelementptr inbounds nuw %struct.AVFilterContext, ptr %16, i32 0, i32 7
  %18 = load ptr, ptr %17, align 8, !tbaa !54
  %19 = getelementptr inbounds ptr, ptr %18, i64 0
  %20 = load ptr, ptr %19, align 8, !tbaa !42
  store ptr %20, ptr %7, align 8, !tbaa !42
  call void @llvm.lifetime.start.p0(i64 8, ptr %8) #6
  %21 = load ptr, ptr %6, align 8, !tbaa !4
  %22 = getelementptr inbounds nuw %struct.AVFilterContext, ptr %21, i32 0, i32 9
  %23 = load ptr, ptr %22, align 8, !tbaa !9
  store ptr %23, ptr %8, align 8, !tbaa !22
  call void @llvm.lifetime.start.p0(i64 8, ptr %9) #6
  store ptr null, ptr %9, align 8, !tbaa !44
  call void @llvm.lifetime.start.p0(i64 224, ptr %10) #6
  call void @llvm.lifetime.start.p0(i64 4, ptr %11) #6
  %24 = load ptr, ptr %6, align 8, !tbaa !4
  %25 = load ptr, ptr %5, align 8, !tbaa !44
  %26 = getelementptr inbounds nuw %struct.AVFrame, ptr %25, i32 0, i32 6
  %27 = load i32, ptr %26, align 4, !tbaa !55
  %28 = call ptr @av_get_pix_fmt_name(i32 noundef %27)
  %29 = load ptr, ptr %5, align 8, !tbaa !44
  %30 = getelementptr inbounds nuw %struct.AVFrame, ptr %29, i32 0, i32 3
  %31 = load i32, ptr %30, align 8, !tbaa !61
  %32 = load ptr, ptr %5, align 8, !tbaa !44
  %33 = getelementptr inbounds nuw %struct.AVFrame, ptr %32, i32 0, i32 4
  %34 = load i32, ptr %33, align 4, !tbaa !62
  %35 = load ptr, ptr %5, align 8, !tbaa !44
  %36 = getelementptr inbounds nuw %struct.AVFrame, ptr %35, i32 0, i32 9
  %37 = load i64, ptr %36, align 8, !tbaa !63
  call void (ptr, i32, ptr, ...) @av_log(ptr noundef %24, i32 noundef 48, ptr noundef @.str.3, ptr noundef %28, i32 noundef %31, i32 noundef %34, i64 noundef %37)
  %38 = load ptr, ptr %8, align 8, !tbaa !22
  %39 = getelementptr inbounds nuw %struct.VAAPIVPPContext, ptr %38, i32 0, i32 14
  %40 = load i32, ptr %39, align 8, !tbaa !41
  %41 = icmp ne i32 %40, 0
  br i1 %41, label %42, label %46

42:                                               ; preds = %2
  %43 = load ptr, ptr %7, align 8, !tbaa !42
  %44 = load ptr, ptr %5, align 8, !tbaa !44
  %45 = call i32 @ff_filter_frame(ptr noundef %43, ptr noundef %44)
  store i32 %45, ptr %3, align 4
  store i32 1, ptr %12, align 4
  br label %111

46:                                               ; preds = %2
  %47 = load ptr, ptr %8, align 8, !tbaa !22
  %48 = getelementptr inbounds nuw %struct.VAAPIVPPContext, ptr %47, i32 0, i32 5
  %49 = load i32, ptr %48, align 8, !tbaa !64
  %50 = icmp eq i32 %49, -1
  br i1 %50, label %51, label %52

51:                                               ; preds = %46
  store i32 -22, ptr %3, align 4
  store i32 1, ptr %12, align 4
  br label %111

52:                                               ; preds = %46
  %53 = load ptr, ptr %7, align 8, !tbaa !42
  %54 = load ptr, ptr %8, align 8, !tbaa !22
  %55 = getelementptr inbounds nuw %struct.VAAPIVPPContext, ptr %54, i32 0, i32 10
  %56 = load i32, ptr %55, align 4, !tbaa !65
  %57 = load ptr, ptr %8, align 8, !tbaa !22
  %58 = getelementptr inbounds nuw %struct.VAAPIVPPContext, ptr %57, i32 0, i32 11
  %59 = load i32, ptr %58, align 8, !tbaa !66
  %60 = call ptr @ff_get_video_buffer(ptr noundef %53, i32 noundef %56, i32 noundef %59)
  store ptr %60, ptr %9, align 8, !tbaa !44
  %61 = load ptr, ptr %9, align 8, !tbaa !44
  %62 = icmp ne ptr %61, null
  br i1 %62, label %64, label %63

63:                                               ; preds = %52
  store i32 -12, ptr %11, align 4, !tbaa !67
  br label %109

64:                                               ; preds = %52
  %65 = load ptr, ptr %9, align 8, !tbaa !44
  %66 = load ptr, ptr %5, align 8, !tbaa !44
  %67 = call i32 @av_frame_copy_props(ptr noundef %65, ptr noundef %66)
  store i32 %67, ptr %11, align 4, !tbaa !67
  %68 = load i32, ptr %11, align 4, !tbaa !67
  %69 = icmp slt i32 %68, 0
  br i1 %69, label %70, label %71

70:                                               ; preds = %64
  br label %109

71:                                               ; preds = %64
  %72 = load ptr, ptr %6, align 8, !tbaa !4
  %73 = load ptr, ptr %5, align 8, !tbaa !44
  %74 = load ptr, ptr %9, align 8, !tbaa !44
  %75 = call i32 @ff_vaapi_vpp_init_params(ptr noundef %72, ptr noundef %10, ptr noundef %73, ptr noundef %74)
  store i32 %75, ptr %11, align 4, !tbaa !67
  %76 = load i32, ptr %11, align 4, !tbaa !67
  %77 = icmp slt i32 %76, 0
  br i1 %77, label %78, label %79

78:                                               ; preds = %71
  br label %109

79:                                               ; preds = %71
  %80 = load ptr, ptr %8, align 8, !tbaa !22
  %81 = getelementptr inbounds nuw %struct.VAAPIVPPContext, ptr %80, i32 0, i32 12
  %82 = getelementptr inbounds [10 x i32], ptr %81, i64 0, i64 0
  %83 = getelementptr inbounds nuw %struct._VAProcPipelineParameterBuffer, ptr %10, i32 0, i32 8
  store ptr %82, ptr %83, align 8, !tbaa !68
  %84 = getelementptr inbounds nuw %struct._VAProcPipelineParameterBuffer, ptr %10, i32 0, i32 9
  store i32 1, ptr %84, align 8, !tbaa !75
  %85 = load ptr, ptr %6, align 8, !tbaa !4
  %86 = load ptr, ptr %9, align 8, !tbaa !44
  %87 = call i32 @ff_vaapi_vpp_render_picture(ptr noundef %85, ptr noundef %10, ptr noundef %86)
  store i32 %87, ptr %11, align 4, !tbaa !67
  %88 = load i32, ptr %11, align 4, !tbaa !67
  %89 = icmp slt i32 %88, 0
  br i1 %89, label %90, label %91

90:                                               ; preds = %79
  br label %109

91:                                               ; preds = %79
  call void @av_frame_free(ptr noundef %5)
  %92 = load ptr, ptr %6, align 8, !tbaa !4
  %93 = load ptr, ptr %9, align 8, !tbaa !44
  %94 = getelementptr inbounds nuw %struct.AVFrame, ptr %93, i32 0, i32 6
  %95 = load i32, ptr %94, align 4, !tbaa !55
  %96 = call ptr @av_get_pix_fmt_name(i32 noundef %95)
  %97 = load ptr, ptr %9, align 8, !tbaa !44
  %98 = getelementptr inbounds nuw %struct.AVFrame, ptr %97, i32 0, i32 3
  %99 = load i32, ptr %98, align 8, !tbaa !61
  %100 = load ptr, ptr %9, align 8, !tbaa !44
  %101 = getelementptr inbounds nuw %struct.AVFrame, ptr %100, i32 0, i32 4
  %102 = load i32, ptr %101, align 4, !tbaa !62
  %103 = load ptr, ptr %9, align 8, !tbaa !44
  %104 = getelementptr inbounds nuw %struct.AVFrame, ptr %103, i32 0, i32 9
  %105 = load i64, ptr %104, align 8, !tbaa !63
  call void (ptr, i32, ptr, ...) @av_log(ptr noundef %92, i32 noundef 48, ptr noundef @.str.4, ptr noundef %96, i32 noundef %99, i32 noundef %102, i64 noundef %105)
  %106 = load ptr, ptr %7, align 8, !tbaa !42
  %107 = load ptr, ptr %9, align 8, !tbaa !44
  %108 = call i32 @ff_filter_frame(ptr noundef %106, ptr noundef %107)
  store i32 %108, ptr %3, align 4
  store i32 1, ptr %12, align 4
  br label %111

109:                                              ; preds = %90, %78, %70, %63
  call void @av_frame_free(ptr noundef %5)
  call void @av_frame_free(ptr noundef %9)
  %110 = load i32, ptr %11, align 4, !tbaa !67
  store i32 %110, ptr %3, align 4
  store i32 1, ptr %12, align 4
  br label %111

111:                                              ; preds = %109, %91, %51, %42
  call void @llvm.lifetime.end.p0(i64 4, ptr %11) #6
  call void @llvm.lifetime.end.p0(i64 224, ptr %10) #6
  call void @llvm.lifetime.end.p0(i64 8, ptr %9) #6
  call void @llvm.lifetime.end.p0(i64 8, ptr %8) #6
  call void @llvm.lifetime.end.p0(i64 8, ptr %7) #6
  call void @llvm.lifetime.end.p0(i64 8, ptr %6) #6
  %112 = load i32, ptr %3, align 4
  ret i32 %112
}