; Function Attrs: nounwind uwtable
define internal i32 @procamp_vaapi_filter_frame(ptr noundef readonly captures(none) %0, ptr noundef %1) #2 {
  %3 = alloca ptr, align 8
  %4 = alloca ptr, align 8
  %5 = alloca %struct._VAProcPipelineParameterBuffer, align 8
  store ptr %1, ptr %3, align 8, !tbaa !35
  %6 = getelementptr inbounds nuw i8, ptr %0, i64 16
  %7 = load ptr, ptr %6, align 8, !tbaa !37
  %8 = getelementptr inbounds nuw i8, ptr %7, i64 56
  %9 = load ptr, ptr %8, align 8, !tbaa !46
  %10 = load ptr, ptr %9, align 8, !tbaa !47
  %11 = getelementptr inbounds nuw i8, ptr %7, i64 72
  %12 = load ptr, ptr %11, align 8, !tbaa !4
  call void @llvm.lifetime.start.p0(i64 8, ptr nonnull %4) #7
  call void @llvm.lifetime.start.p0(i64 224, ptr nonnull %5) #7
  %13 = getelementptr inbounds nuw i8, ptr %1, i64 116
  %14 = load i32, ptr %13, align 4, !tbaa !49
  %15 = tail call ptr @av_get_pix_fmt_name(i32 noundef %14) #7
  %16 = getelementptr inbounds nuw i8, ptr %1, i64 104
  %17 = load i32, ptr %16, align 8, !tbaa !55
  %18 = getelementptr inbounds nuw i8, ptr %1, i64 108
  %19 = load i32, ptr %18, align 4, !tbaa !56
  %20 = getelementptr inbounds nuw i8, ptr %1, i64 136
  %21 = load i64, ptr %20, align 8, !tbaa !57
  tail call void (ptr, i32, ptr, ...) @av_log(ptr noundef %7, i32 noundef 48, ptr noundef nonnull @.str.3, ptr noundef %15, i32 noundef %17, i32 noundef %19, i64 noundef %21) #7
  %22 = getelementptr inbounds nuw i8, ptr %12, i64 120
  %23 = load i32, ptr %22, align 8, !tbaa !34
  %.not = icmp eq i32 %23, 0
  br i1 %.not, label %26, label %24

24:                                               ; preds = %2
  %25 = tail call i32 @ff_filter_frame(ptr noundef %10, ptr noundef nonnull %1) #7
  br label %60

26:                                               ; preds = %2
  %27 = getelementptr inbounds nuw i8, ptr %12, i64 32
  %28 = load i32, ptr %27, align 8, !tbaa !58
  %29 = icmp eq i32 %28, -1
  br i1 %29, label %60, label %30

30:                                               ; preds = %26
  %31 = getelementptr inbounds nuw i8, ptr %12, i64 68
  %32 = load i32, ptr %31, align 4, !tbaa !59
  %33 = getelementptr inbounds nuw i8, ptr %12, i64 72
  %34 = load i32, ptr %33, align 8, !tbaa !60
  %35 = tail call ptr @ff_get_video_buffer(ptr noundef %10, i32 noundef %32, i32 noundef %34) #7
  store ptr %35, ptr %4, align 8, !tbaa !35
  %.not24 = icmp eq ptr %35, null
  br i1 %.not24, label %59, label %36

36:                                               ; preds = %30
  %37 = tail call i32 @av_frame_copy_props(ptr noundef nonnull %35, ptr noundef nonnull %1) #7
  %38 = icmp slt i32 %37, 0
  br i1 %38, label %59, label %39

39:                                               ; preds = %36
  %40 = call i32 @ff_vaapi_vpp_init_params(ptr noundef nonnull %7, ptr noundef nonnull %5, ptr noundef nonnull %1, ptr noundef nonnull %35) #7
  %41 = icmp slt i32 %40, 0
  br i1 %41, label %59, label %42

42:                                               ; preds = %39
  %43 = getelementptr inbounds nuw i8, ptr %12, i64 76
  %44 = getelementptr inbounds nuw i8, ptr %5, i64 48
  store ptr %43, ptr %44, align 8, !tbaa !61
  %45 = getelementptr inbounds nuw i8, ptr %5, i64 56
  store i32 1, ptr %45, align 8, !tbaa !68
  %46 = call i32 @ff_vaapi_vpp_render_picture(ptr noundef nonnull %7, ptr noundef nonnull %5, ptr noundef nonnull %35) #7
  %47 = icmp slt i32 %46, 0
  br i1 %47, label %59, label %48

48:                                               ; preds = %42
  call void @av_frame_free(ptr noundef nonnull %3) #7
  %49 = getelementptr inbounds nuw i8, ptr %35, i64 116
  %50 = load i32, ptr %49, align 4, !tbaa !49
  %51 = call ptr @av_get_pix_fmt_name(i32 noundef %50) #7
  %52 = getelementptr inbounds nuw i8, ptr %35, i64 104
  %53 = load i32, ptr %52, align 8, !tbaa !55
  %54 = getelementptr inbounds nuw i8, ptr %35, i64 108
  %55 = load i32, ptr %54, align 4, !tbaa !56
  %56 = getelementptr inbounds nuw i8, ptr %35, i64 136
  %57 = load i64, ptr %56, align 8, !tbaa !57
  call void (ptr, i32, ptr, ...) @av_log(ptr noundef nonnull %7, i32 noundef 48, ptr noundef nonnull @.str.4, ptr noundef %51, i32 noundef %53, i32 noundef %55, i64 noundef %57) #7
  %58 = call i32 @ff_filter_frame(ptr noundef %10, ptr noundef nonnull %35) #7
  br label %60

59:                                               ; preds = %30, %42, %39, %36
  %.0 = phi i32 [ %37, %36 ], [ %40, %39 ], [ %46, %42 ], [ -12, %30 ]
  call void @av_frame_free(ptr noundef nonnull %3) #7
  call void @av_frame_free(ptr noundef nonnull %4) #7
  br label %60

60:                                               ; preds = %26, %59, %48, %24
  %.019 = phi i32 [ %25, %24 ], [ %.0, %59 ], [ %58, %48 ], [ -22, %26 ]
  call void @llvm.lifetime.end.p0(i64 224, ptr nonnull %5) #7
  call void @llvm.lifetime.end.p0(i64 8, ptr nonnull %4) #7
  ret i32 %.019
}